target datalayout = "e-m:e-p270:32:32-p271:32:32-p272:64:64-i64:64-i128:128-f80:128-n8:16:32:64-S128"
target triple = "x86_64-pc-linux-gnu"

%"class.std::__cxx11::basic_string" = type { %"struct.std::__cxx11::basic_string<char>::_Alloc_hider", i64, %union.anon }
%"struct.std::__cxx11::basic_string<char>::_Alloc_hider" = type { ptr }
%union.anon = type { i64, [8 x i8] }
%"class.std::allocator" = type { i8 }

@.str.48 = private unnamed_addr constant [1 x i8] zeroinitializer, align 1
@.str.71 = private unnamed_addr constant [9 x i8] c"latitude\00", align 1
@.str.72 = private unnamed_addr constant [10 x i8] c"longitude\00", align 1

; Function Attrs: mustprogress uwtable
define internal noundef ptr @_ZL15instantiate_crsRKNSt7__cxx1112basic_stringIcSt11char_traitsIcESaIcEEERbRdS7_(ptr noundef nonnull align 8 dereferenceable(32) %0, ptr noundef nonnull align 1 dereferenceable(1) %1, ptr noundef nonnull align 8 dereferenceable(8) %2, ptr noundef nonnull align 1 dereferenceable(1) %3) #11 personality ptr @__gxx_personality_v0 {
  %5 = alloca ptr, align 8
  %6 = alloca ptr, align 8
  %7 = alloca ptr, align 8
  %8 = alloca ptr, align 8
  %9 = alloca ptr, align 8
  %10 = alloca ptr, align 8
  %11 = alloca %"class.std::__cxx11::basic_string", align 8
  %12 = alloca ptr, align 8
  %13 = alloca i32, align 4
  %14 = alloca i32, align 4
  %15 = alloca ptr, align 8
  %16 = alloca ptr, align 8
  %17 = alloca ptr, align 8
  %18 = alloca %"class.std::__cxx11::basic_string", align 8
  %19 = alloca %"class.std::allocator", align 1
  %20 = alloca %"class.std::__cxx11::basic_string", align 8
  %21 = alloca %"class.std::allocator", align 1
  %22 = alloca i1, align 1
  %23 = alloca i1, align 1
  store ptr %0, ptr %6, align 8
  store ptr %1, ptr %7, align 8
  store ptr %2, ptr %8, align 8
  store ptr %3, ptr %9, align 8
  %24 = load ptr, ptr %6, align 8
  call void @_Z25pj_add_type_crs_if_neededRKNSt7__cxx1112basic_stringIcSt11char_traitsIcESaIcEEE(ptr dead_on_unwind writable sret(%"class.std::__cxx11::basic_string") align 8 %11, ptr noundef nonnull align 8 dereferenceable(32) %24)
  %25 = call noundef ptr @_ZNKSt7__cxx1112basic_stringIcSt11char_traitsIcESaIcEE5c_strEv(ptr noundef nonnull align 8 dereferenceable(32) %11) #3
  %26 = invoke ptr @proj_create(ptr noundef null, ptr noundef %25)
          to label %27 unwind label %31

27:                                               ; preds = %4
  call void @_ZNSt7__cxx1112basic_stringIcSt11char_traitsIcESaIcEED1Ev(ptr noundef nonnull align 8 dereferenceable(32) %11) #3
  store ptr %26, ptr %10, align 8
  %28 = load ptr, ptr %10, align 8
  %29 = icmp ne ptr %28, null
  br i1 %29, label %35, label %30

30:                                               ; preds = %27
  store ptr null, ptr %5, align 8
  br label %105

31:                                               ; preds = %4
  %32 = landingpad { ptr, i32 }
          cleanup
  %33 = extractvalue { ptr, i32 } %32, 0
  store ptr %33, ptr %12, align 8
  %34 = extractvalue { ptr, i32 } %32, 1
  store i32 %34, ptr %13, align 4
  call void @_ZNSt7__cxx1112basic_stringIcSt11char_traitsIcESaIcEED1Ev(ptr noundef nonnull align 8 dereferenceable(32) %11) #3
  br label %107

35:                                               ; preds = %27
  %36 = load ptr, ptr %7, align 8
  store i8 0, ptr %36, align 1
  %37 = load ptr, ptr %8, align 8
  store double 0.000000e+00, ptr %37, align 8
  %38 = load ptr, ptr %9, align 8
  store i8 0, ptr %38, align 1
  %39 = load ptr, ptr %10, align 8
  %40 = call i32 @proj_get_type(ptr noundef %39)
  store i32 %40, ptr %14, align 4
  %41 = load i32, ptr %14, align 4
  %42 = icmp eq i32 %41, 19
  br i1 %42, label %43, label %51

43:                                               ; preds = %35
  %44 = load ptr, ptr %10, align 8
  %45 = call ptr @proj_get_source_crs(ptr noundef null, ptr noundef %44)
  store ptr %45, ptr %15, align 8
  %46 = load ptr, ptr %10, align 8
  %47 = call ptr @proj_destroy(ptr noundef %46)
  %48 = load ptr, ptr %15, align 8
  store ptr %48, ptr %10, align 8
  %49 = load ptr, ptr %10, align 8
  %50 = call i32 @proj_get_type(ptr noundef %49)
  store i32 %50, ptr %14, align 4
  br label %51

51:                                               ; preds = %43, %35
  %52 = load i32, ptr %14, align 4
  %53 = icmp eq i32 %52, 12
  br i1 %53, label %60, label %54

54:                                               ; preds = %51
  %55 = load i32, ptr %14, align 4
  %56 = icmp eq i32 %55, 13
  br i1 %56, label %60, label %57

57:                                               ; preds = %54
  %58 = load i32, ptr %14, align 4
  %59 = icmp eq i32 %58, 9
  br i1 %59, label %60, label %103

60:                                               ; preds = %57, %54, %51
  %61 = load ptr, ptr %10, align 8
  %62 = call ptr @proj_crs_get_coordinate_system(ptr noundef null, ptr noundef %61)
  store ptr %62, ptr %16, align 8
  store ptr @.str.48, ptr %17, align 8
  %63 = load ptr, ptr %16, align 8
  %64 = load ptr, ptr %8, align 8
  %65 = call i32 @proj_cs_get_axis_info(ptr noundef null, ptr noundef %63, i32 noundef 0, ptr noundef %17, ptr noundef null, ptr noundef null, ptr noundef %64, ptr noundef null, ptr noundef null, ptr noundef null)
  %66 = load ptr, ptr %17, align 8
  call void @_ZNSaIcEC1Ev(ptr noundef nonnull align 1 dereferenceable(1) %19) #3
  invoke void @_ZNSt7__cxx1112basic_stringIcSt11char_traitsIcESaIcEEC1EPKcRKS3_(ptr noundef nonnull align 8 dereferenceable(32) %18, ptr noundef %66, ptr noundef nonnull align 1 dereferenceable(1) %19)
          to label %67 unwind label %92

67:                                               ; preds = %60
  %68 = call noundef i64 @_ZN5osgeo4proj8internal7ci_findERKNSt7__cxx1112basic_stringIcSt11char_traitsIcESaIcEEEPKc(ptr noundef nonnull align 8 dereferenceable(32) %18, ptr noundef @.str.71) #3
  %69 = icmp ne i64 %68, -1
  %70 = load ptr, ptr %9, align 8
  %71 = zext i1 %69 to i8
  store i8 %71, ptr %70, align 1
  call void @_ZNSt7__cxx1112basic_stringIcSt11char_traitsIcESaIcEED1Ev(ptr noundef nonnull align 8 dereferenceable(32) %18) #3
  call void @_ZNSaIcED1Ev(ptr noundef nonnull align 1 dereferenceable(1) %19) #3
  %72 = load ptr, ptr %9, align 8
  %73 = load i8, ptr %72, align 1
  %74 = trunc i8 %73 to i1
  store i1 false, ptr %22, align 1
  store i1 false, ptr %23, align 1
  br i1 %74, label %80, label %75

75:                                               ; preds = %67
  %76 = load ptr, ptr %17, align 8
  call void @_ZNSaIcEC1Ev(ptr noundef nonnull align 1 dereferenceable(1) %21) #3
  store i1 true, ptr %22, align 1
  invoke void @_ZNSt7__cxx1112basic_stringIcSt11char_traitsIcESaIcEEC1EPKcRKS3_(ptr noundef nonnull align 8 dereferenceable(32) %20, ptr noundef %76, ptr noundef nonnull align 1 dereferenceable(1) %21)
          to label %77 unwind label %96

77:                                               ; preds = %75
  store i1 true, ptr %23, align 1
  %78 = call noundef i64 @_ZN5osgeo4proj8internal7ci_findERKNSt7__cxx1112basic_stringIcSt11char_traitsIcESaIcEEEPKc(ptr noundef nonnull align 8 dereferenceable(32) %20, ptr noundef @.str.72) #3
  %79 = icmp ne i64 %78, -1
  br label %80

80:                                               ; preds = %77, %67
  %81 = phi i1 [ true, %67 ], [ %79, %77 ]
  %82 = load ptr, ptr %7, align 8
  %83 = zext i1 %81 to i8
  store i8 %83, ptr %82, align 1
  %84 = load i1, ptr %23, align 1
  br i1 %84, label %85, label %86

85:                                               ; preds = %80
  call void @_ZNSt7__cxx1112basic_stringIcSt11char_traitsIcESaIcEED1Ev(ptr noundef nonnull align 8 dereferenceable(32) %20) #3
  br label %86

86:                                               ; preds = %85, %80
  %87 = load i1, ptr %22, align 1
  br i1 %87, label %88, label %89

88:                                               ; preds = %86
  call void @_ZNSaIcED1Ev(ptr noundef nonnull align 1 dereferenceable(1) %21) #3
  br label %89

89:                                               ; preds = %88, %86
  %90 = load ptr, ptr %16, align 8
  %91 = call ptr @proj_destroy(ptr noundef %90)
  br label %103

92:                                               ; preds = %60
  %93 = landingpad { ptr, i32 }
          cleanup
  %94 = extractvalue { ptr, i32 } %93, 0
  store ptr %94, ptr %12, align 8
  %95 = extractvalue { ptr, i32 } %93, 1
  store i32 %95, ptr %13, align 4
  call void @_ZNSaIcED1Ev(ptr noundef nonnull align 1 dereferenceable(1) %19) #3
  br label %107

96:                                               ; preds = %75
  %97 = landingpad { ptr, i32 }
          cleanup
  %98 = extractvalue { ptr, i32 } %97, 0
  store ptr %98, ptr %12, align 8
  %99 = extractvalue { ptr, i32 } %97, 1
  store i32 %99, ptr %13, align 4
  %100 = load i1, ptr %22, align 1
  br i1 %100, label %101, label %102

101:                                              ; preds = %96
  call void @_ZNSaIcED1Ev(ptr noundef nonnull align 1 dereferenceable(1) %21) #3
  br label %102

102:                                              ; preds = %101, %96
  br label %107

103:                                              ; preds = %89, %57
  %104 = load ptr, ptr %10, align 8
  store ptr %104, ptr %5, align 8
  br label %105

105:                                              ; preds = %103, %30
  %106 = load ptr, ptr %5, align 8
  ret ptr %106

107:                                              ; preds = %102, %92, %31
  %108 = load ptr, ptr %12, align 8
  %109 = load i32, ptr %13, align 4
  %110 = insertvalue { ptr, i32 } poison, ptr %108, 0
  %111 = insertvalue { ptr, i32 } %110, i32 %109, 1
  resume { ptr, i32 } %111
}