; Function Attrs: mustprogress norecurse uwtable
define internal fastcc noundef ptr @_ZL15instantiate_crsRKNSt7__cxx1112basic_stringIcSt11char_traitsIcESaIcEEERbRdS7_(ptr noundef nonnull align 8 dereferenceable(32) %0, ptr nocapture noundef nonnull writeonly align 1 dereferenceable(1) %1, ptr noundef nonnull align 8 dereferenceable(8) %2, ptr nocapture noundef nonnull align 1 dereferenceable(1) %3) unnamed_addr #14 personality ptr @__gxx_personality_v0 {
  %5 = alloca %"class.std::__cxx11::basic_string", align 8
  %6 = alloca ptr, align 8
  %7 = alloca %"class.std::__cxx11::basic_string", align 8
  %8 = alloca %"class.std::allocator", align 1
  %9 = alloca %"class.std::__cxx11::basic_string", align 8
  %10 = alloca %"class.std::allocator", align 1
  call void @_Z25pj_add_type_crs_if_neededRKNSt7__cxx1112basic_stringIcSt11char_traitsIcESaIcEEE(ptr dead_on_unwind nonnull writable sret(%"class.std::__cxx11::basic_string") align 8 %5, ptr noundef nonnull align 8 dereferenceable(32) %0)
  %11 = call noundef ptr @_ZNKSt7__cxx1112basic_stringIcSt11char_traitsIcESaIcEE5c_strEv(ptr noundef nonnull align 8 dereferenceable(32) %5) #25
  %12 = invoke ptr @proj_create(ptr noundef null, ptr noundef %11)
          to label %13 unwind label %14

13:                                               ; preds = %4
  call void @_ZNSt7__cxx1112basic_stringIcSt11char_traitsIcESaIcEED1Ev(ptr noundef nonnull align 8 dereferenceable(32) %5) #25
  %.not = icmp eq ptr %12, null
  br i1 %.not, label %45, label %16

14:                                               ; preds = %4
  %15 = landingpad { ptr, i32 }
          cleanup
  call void @_ZNSt7__cxx1112basic_stringIcSt11char_traitsIcESaIcEED1Ev(ptr noundef nonnull align 8 dereferenceable(32) %5) #25
  br label %46

16:                                               ; preds = %13
  store i8 0, ptr %1, align 1
  store double 0.000000e+00, ptr %2, align 8
  store i8 0, ptr %3, align 1
  %17 = call i32 @proj_get_type(ptr noundef nonnull %12)
  %18 = icmp eq i32 %17, 19
  br i1 %18, label %19, label %23

19:                                               ; preds = %16
  %20 = call ptr @proj_get_source_crs(ptr noundef null, ptr noundef nonnull %12)
  %21 = call ptr @proj_destroy(ptr noundef nonnull %12)
  %22 = call i32 @proj_get_type(ptr noundef %20)
  br label %23

23:                                               ; preds = %19, %16
  %.033 = phi i32 [ %22, %19 ], [ %17, %16 ]
  %.032 = phi ptr [ %20, %19 ], [ %12, %16 ]
  switch i32 %.033, label %45 [
    i32 13, label %24
    i32 12, label %24
    i32 9, label %24
  ]

24:                                               ; preds = %23, %23, %23
  %25 = call ptr @proj_crs_get_coordinate_system(ptr noundef null, ptr noundef %.032)
  store ptr @.str.48, ptr %6, align 8
  %26 = call i32 @proj_cs_get_axis_info(ptr noundef null, ptr noundef %25, i32 noundef 0, ptr noundef nonnull %6, ptr noundef null, ptr noundef null, ptr noundef nonnull %2, ptr noundef null, ptr noundef null, ptr noundef null)
  %27 = load ptr, ptr %6, align 8
  call void @_ZNSaIcEC1Ev(ptr noundef nonnull align 1 dereferenceable(1) %8) #25
  invoke void @_ZNSt7__cxx1112basic_stringIcSt11char_traitsIcESaIcEEC1EPKcRKS3_(ptr noundef nonnull align 8 dereferenceable(32) %7, ptr noundef %27, ptr noundef nonnull align 1 dereferenceable(1) %8)
          to label %28 unwind label %41

28:                                               ; preds = %24
  %29 = call noundef i64 @_ZN5osgeo4proj8internal7ci_findERKNSt7__cxx1112basic_stringIcSt11char_traitsIcESaIcEEEPKc(ptr noundef nonnull align 8 dereferenceable(32) %7, ptr noundef nonnull @.str.71) #25
  %30 = icmp ne i64 %29, -1
  %31 = zext i1 %30 to i8
  store i8 %31, ptr %3, align 1
  call void @_ZNSt7__cxx1112basic_stringIcSt11char_traitsIcESaIcEED1Ev(ptr noundef nonnull align 8 dereferenceable(32) %7) #25
  call void @_ZNSaIcED1Ev(ptr noundef nonnull align 1 dereferenceable(1) %8) #25
  %32 = load i8, ptr %3, align 1
  %33 = trunc i8 %32 to i1
  br i1 %33, label %.thread, label %34

34:                                               ; preds = %28
  %35 = load ptr, ptr %6, align 8
  call void @_ZNSaIcEC1Ev(ptr noundef nonnull align 1 dereferenceable(1) %10) #25
  invoke void @_ZNSt7__cxx1112basic_stringIcSt11char_traitsIcESaIcEEC1EPKcRKS3_(ptr noundef nonnull align 8 dereferenceable(32) %9, ptr noundef %35, ptr noundef nonnull align 1 dereferenceable(1) %10)
          to label %36 unwind label %43

.thread:                                          ; preds = %28
  store i8 1, ptr %1, align 1
  br label %.critedge40

36:                                               ; preds = %34
  %37 = call noundef i64 @_ZN5osgeo4proj8internal7ci_findERKNSt7__cxx1112basic_stringIcSt11char_traitsIcESaIcEEEPKc(ptr noundef nonnull align 8 dereferenceable(32) %9, ptr noundef nonnull @.str.72) #25
  %38 = icmp ne i64 %37, -1
  %39 = zext i1 %38 to i8
  store i8 %39, ptr %1, align 1
  call void @_ZNSt7__cxx1112basic_stringIcSt11char_traitsIcESaIcEED1Ev(ptr noundef nonnull align 8 dereferenceable(32) %9) #25
  call void @_ZNSaIcED1Ev(ptr noundef nonnull align 1 dereferenceable(1) %10) #25
  br label %.critedge40

.critedge40:                                      ; preds = %.thread, %36
  %40 = call ptr @proj_destroy(ptr noundef %25)
  br label %45

41:                                               ; preds = %24
  %42 = landingpad { ptr, i32 }
          cleanup
  call void @_ZNSaIcED1Ev(ptr noundef nonnull align 1 dereferenceable(1) %8) #25
  br label %46

43:                                               ; preds = %34
  %44 = landingpad { ptr, i32 }
          cleanup
  call void @_ZNSaIcED1Ev(ptr noundef nonnull align 1 dereferenceable(1) %10) #25
  br label %46

45:                                               ; preds = %.critedge40, %23, %13
  %.031 = phi ptr [ null, %13 ], [ %.032, %23 ], [ %.032, %.critedge40 ]
  ret ptr %.031

46:                                               ; preds = %43, %41, %14
  %.pn = phi { ptr, i32 } [ %44, %43 ], [ %42, %41 ], [ %15, %14 ]
  resume { ptr, i32 } %.pn
}